target datalayout = "e-m:e-p270:32:32-p271:32:32-p272:64:64-i64:64-i128:128-f80:128-n8:16:32:64-S128"
target triple = "x86_64-pc-linux-gnu"

%"class.std::__cxx11::basic_string" = type { %"struct.std::__cxx11::basic_string<char>::_Alloc_hider", i64, %union.anon }
%"struct.std::__cxx11::basic_string<char>::_Alloc_hider" = type { ptr }
%union.anon = type { i64, [8 x i8] }
%"class.std::basic_string_view" = type { i64, ptr }
%class.cmScriptGeneratorIndent = type { i32 }

@.str.3 = private unnamed_addr constant [10 x i8] c"include(\22\00", align 1
@.str.4 = private unnamed_addr constant [13 x i8] c"\22 OPTIONAL)\0A\00", align 1
@.str.5 = private unnamed_addr constant [2 x i8] c" \00", align 1

; Function Attrs: mustprogress uwtable
define linkonce_odr dso_local void @_ZNK23cmScriptGeneratorIndent5WriteERSo(ptr noundef nonnull align 4 dereferenceable(4) %0, ptr noundef nonnull align 8 dereferenceable(8) %1) #4 comdat align 2 {
  %3 = alloca ptr, align 8
  %4 = alloca ptr, align 8
  %5 = alloca i32, align 4
  store ptr %0, ptr %3, align 8
  store ptr %1, ptr %4, align 8
  %6 = load ptr, ptr %3, align 8
  store i32 0, ptr %5, align 4
  br label %7

7:                                                ; preds = %15, %2
  %8 = load i32, ptr %5, align 4
  %9 = getelementptr inbounds %class.cmScriptGeneratorIndent, ptr %6, i32 0, i32 0
  %10 = load i32, ptr %9, align 4
  %11 = icmp slt i32 %8, %10
  br i1 %11, label %12, label %18

12:                                               ; preds = %7
  %13 = load ptr, ptr %4, align 8
  %14 = call noundef nonnull align 8 dereferenceable(8) ptr @_ZStlsISt11char_traitsIcEERSt13basic_ostreamIcT_ES5_PKc(ptr noundef nonnull align 8 dereferenceable(8) %13, ptr noundef @.str.5)
  br label %15

15:                                               ; preds = %12
  %16 = load i32, ptr %5, align 4
  %17 = add nsw i32 %16, 1
  store i32 %17, ptr %5, align 4
  br label %7, !llvm.loop !5

18:                                               ; preds = %7
  ret void
}

; Function Attrs: mustprogress uwtable
define linkonce_odr dso_local noundef nonnull align 8 dereferenceable(8) ptr @_ZlsRSo23cmScriptGeneratorIndent(ptr noundef nonnull align 8 dereferenceable(8) %0, i32 %1) #4 comdat {
  %3 = alloca %class.cmScriptGeneratorIndent, align 4
  %4 = alloca ptr, align 8
  %5 = getelementptr inbounds %class.cmScriptGeneratorIndent, ptr %3, i32 0, i32 0
  store i32 %1, ptr %5, align 4
  store ptr %0, ptr %4, align 8
  %6 = load ptr, ptr %4, align 8
  call void @_ZNK23cmScriptGeneratorIndent5WriteERSo(ptr noundef nonnull align 4 dereferenceable(4) %3, ptr noundef nonnull align 8 dereferenceable(8) %6)
  %7 = load ptr, ptr %4, align 8
  ret ptr %7
}

; Function Attrs: mustprogress uwtable
define dso_local void @_ZN30cmInstallCxxModuleBmiGenerator23GenerateScriptForConfigERSoRKNSt7__cxx1112basic_stringIcSt11char_traitsIcESaIcEEE23cmScriptGeneratorIndent(ptr noundef nonnull align 8 dereferenceable(281) %0, ptr noundef nonnull align 8 dereferenceable(8) %1, ptr noundef nonnull align 8 dereferenceable(32) %2, i32 %3) unnamed_addr #4 align 2 personality ptr @__gxx_personality_v0 {
  %5 = alloca %class.cmScriptGeneratorIndent, align 4
  %6 = alloca ptr, align 8
  %7 = alloca ptr, align 8
  %8 = alloca ptr, align 8
  %9 = alloca ptr, align 8
  %10 = alloca %"class.std::__cxx11::basic_string", align 8
  %11 = alloca i32, align 4
  %12 = alloca %class.cmScriptGeneratorIndent, align 4
  %13 = alloca ptr, align 8
  %14 = alloca i32, align 4
  %15 = alloca %"class.std::__cxx11::basic_string", align 8
  %16 = alloca %"class.std::basic_string_view", align 8
  %17 = getelementptr inbounds %class.cmScriptGeneratorIndent, ptr %5, i32 0, i32 0
  store i32 %3, ptr %17, align 4
  store ptr %0, ptr %6, align 8
  store ptr %1, ptr %7, align 8
  store ptr %2, ptr %8, align 8
  %18 = load ptr, ptr %6, align 8
  %19 = load ptr, ptr %8, align 8
  call void @_ZNK30cmInstallCxxModuleBmiGenerator17GetScriptLocationERKNSt7__cxx1112basic_stringIcSt11char_traitsIcESaIcEEE(ptr dead_on_unwind writable sret(%"class.std::__cxx11::basic_string") align 8 %10, ptr noundef nonnull align 8 dereferenceable(281) %18, ptr noundef nonnull align 8 dereferenceable(32) %19)
  store ptr %10, ptr %9, align 8
  %20 = load ptr, ptr %9, align 8
  %21 = call noundef zeroext i1 @_ZNKSt7__cxx1112basic_stringIcSt11char_traitsIcESaIcEE5emptyEv(ptr noundef nonnull align 8 dereferenceable(32) %20) #3
  br i1 %21, label %22, label %23

22:                                               ; preds = %4
  store i32 1, ptr %11, align 4
  br label %46

23:                                               ; preds = %4
  %24 = load ptr, ptr %7, align 8
  call void @llvm.memcpy.p0.p0.i64(ptr align 4 %12, ptr align 4 %5, i64 4, i1 false)
  %25 = getelementptr inbounds %class.cmScriptGeneratorIndent, ptr %12, i32 0, i32 0
  %26 = load i32, ptr %25, align 4
  %27 = invoke noundef nonnull align 8 dereferenceable(8) ptr @_ZlsRSo23cmScriptGeneratorIndent(ptr noundef nonnull align 8 dereferenceable(8) %24, i32 %26)
          to label %28 unwind label %49

28:                                               ; preds = %23
  %29 = invoke noundef nonnull align 8 dereferenceable(8) ptr @_ZStlsISt11char_traitsIcEERSt13basic_ostreamIcT_ES5_PKc(ptr noundef nonnull align 8 dereferenceable(8) %27, ptr noundef @.str.3)
          to label %30 unwind label %49

30:                                               ; preds = %28
  %31 = load ptr, ptr %9, align 8
  %32 = call { i64, ptr } @_ZNKSt7__cxx1112basic_stringIcSt11char_traitsIcESaIcEEcvSt17basic_string_viewIcS2_EEv(ptr noundef nonnull align 8 dereferenceable(32) %31) #3
  %33 = getelementptr inbounds { i64, ptr }, ptr %16, i32 0, i32 0
  %34 = extractvalue { i64, ptr } %32, 0
  store i64 %34, ptr %33, align 8
  %35 = getelementptr inbounds { i64, ptr }, ptr %16, i32 0, i32 1
  %36 = extractvalue { i64, ptr } %32, 1
  store ptr %36, ptr %35, align 8
  %37 = getelementptr inbounds { i64, ptr }, ptr %16, i32 0, i32 0
  %38 = load i64, ptr %37, align 8
  %39 = getelementptr inbounds { i64, ptr }, ptr %16, i32 0, i32 1
  %40 = load ptr, ptr %39, align 8
  invoke void @_ZN17cmOutputConverter14EscapeForCMakeB5cxx11ESt17basic_string_viewIcSt11char_traitsIcEENS_10WrapQuotesE(ptr dead_on_unwind writable sret(%"class.std::__cxx11::basic_string") align 8 %15, i64 %38, ptr %40, i32 noundef 1)
          to label %41 unwind label %49

41:                                               ; preds = %30
  %42 = invoke noundef nonnull align 8 dereferenceable(8) ptr @_ZStlsIcSt11char_traitsIcESaIcEERSt13basic_ostreamIT_T0_ES7_RKNSt7__cxx1112basic_stringIS4_S5_T1_EE(ptr noundef nonnull align 8 dereferenceable(8) %29, ptr noundef nonnull align 8 dereferenceable(32) %15)
          to label %43 unwind label %53

43:                                               ; preds = %41
  %44 = invoke noundef nonnull align 8 dereferenceable(8) ptr @_ZStlsISt11char_traitsIcEERSt13basic_ostreamIcT_ES5_PKc(ptr noundef nonnull align 8 dereferenceable(8) %42, ptr noundef @.str.4)
          to label %45 unwind label %53

45:                                               ; preds = %43
  call void @_ZNSt7__cxx1112basic_stringIcSt11char_traitsIcESaIcEED1Ev(ptr noundef nonnull align 8 dereferenceable(32) %15) #3
  store i32 0, ptr %11, align 4
  br label %46

46:                                               ; preds = %45, %22
  call void @_ZNSt7__cxx1112basic_stringIcSt11char_traitsIcESaIcEED1Ev(ptr noundef nonnull align 8 dereferenceable(32) %10) #3
  %47 = load i32, ptr %11, align 4
  switch i32 %47, label %63 [
    i32 0, label %48
    i32 1, label %48
  ]

48:                                               ; preds = %46, %46
  ret void

49:                                               ; preds = %30, %28, %23
  %50 = landingpad { ptr, i32 }
          cleanup
  %51 = extractvalue { ptr, i32 } %50, 0
  store ptr %51, ptr %13, align 8
  %52 = extractvalue { ptr, i32 } %50, 1
  store i32 %52, ptr %14, align 4
  br label %57

53:                                               ; preds = %43, %41
  %54 = landingpad { ptr, i32 }
          cleanup
  %55 = extractvalue { ptr, i32 } %54, 0
  store ptr %55, ptr %13, align 8
  %56 = extractvalue { ptr, i32 } %54, 1
  store i32 %56, ptr %14, align 4
  call void @_ZNSt7__cxx1112basic_stringIcSt11char_traitsIcESaIcEED1Ev(ptr noundef nonnull align 8 dereferenceable(32) %15) #3
  br label %57

57:                                               ; preds = %53, %49
  call void @_ZNSt7__cxx1112basic_stringIcSt11char_traitsIcESaIcEED1Ev(ptr noundef nonnull align 8 dereferenceable(32) %10) #3
  br label %58

58:                                               ; preds = %57
  %59 = load ptr, ptr %13, align 8
  %60 = load i32, ptr %14, align 4
  %61 = insertvalue { ptr, i32 } poison, ptr %59, 0
  %62 = insertvalue { ptr, i32 } %61, i32 %60, 1
  resume { ptr, i32 } %62

63:                                               ; preds = %46
  unreachable
}