; Function Attrs: mustprogress uwtable
define dso_local void @_ZN30cmInstallCxxModuleBmiGenerator23GenerateScriptForConfigERSoRKNSt7__cxx1112basic_stringIcSt11char_traitsIcESaIcEEE23cmScriptGeneratorIndent(ptr nocapture noundef nonnull readonly align 8 dereferenceable(281) %0, ptr noundef nonnull align 8 dereferenceable(8) %1, ptr noundef nonnull align 8 dereferenceable(32) %2, i32 %3) unnamed_addr #3 align 2 personality ptr @__gxx_personality_v0 {
  %5 = alloca %"class.std::__cxx11::basic_string", align 8
  %6 = alloca %"class.std::__cxx11::basic_string", align 8
  call void @_ZNK30cmInstallCxxModuleBmiGenerator17GetScriptLocationERKNSt7__cxx1112basic_stringIcSt11char_traitsIcESaIcEEE(ptr dead_on_unwind nonnull writable sret(%"class.std::__cxx11::basic_string") align 8 %5, ptr noundef nonnull align 8 dereferenceable(281) %0, ptr noundef nonnull align 8 dereferenceable(32) %2)
  %7 = call noundef zeroext i1 @_ZNKSt7__cxx1112basic_stringIcSt11char_traitsIcESaIcEE5emptyEv(ptr noundef nonnull align 8 dereferenceable(32) %5) #11
  br i1 %7, label %22, label %8

8:                                                ; preds = %4
  %9 = icmp sgt i32 %3, 0
  br i1 %9, label %.lr.ph.i.i, label %_ZlsRSo23cmScriptGeneratorIndent.exit

.lr.ph.i.i:                                       ; preds = %8, %.noexc
  %.03.i.i = phi i32 [ %11, %.noexc ], [ 0, %8 ]
  %10 = invoke noundef nonnull align 8 dereferenceable(8) ptr @_ZStlsISt11char_traitsIcEERSt13basic_ostreamIcT_ES5_PKc(ptr noundef nonnull align 8 dereferenceable(8) %1, ptr noundef nonnull @.str.5)
          to label %.noexc unwind label %.loopexit

.noexc:                                           ; preds = %.lr.ph.i.i
  %11 = add nuw nsw i32 %.03.i.i, 1
  %exitcond.not.i = icmp eq i32 %11, %3
  br i1 %exitcond.not.i, label %_ZlsRSo23cmScriptGeneratorIndent.exit, label %.lr.ph.i.i, !llvm.loop !21

_ZlsRSo23cmScriptGeneratorIndent.exit:            ; preds = %.noexc, %8
  %12 = invoke noundef nonnull align 8 dereferenceable(8) ptr @_ZStlsISt11char_traitsIcEERSt13basic_ostreamIcT_ES5_PKc(ptr noundef nonnull align 8 dereferenceable(8) %1, ptr noundef nonnull @.str.3)
          to label %13 unwind label %.loopexit.split-lp

13:                                               ; preds = %_ZlsRSo23cmScriptGeneratorIndent.exit
  %14 = call { i64, ptr } @_ZNKSt7__cxx1112basic_stringIcSt11char_traitsIcESaIcEEcvSt17basic_string_viewIcS2_EEv(ptr noundef nonnull align 8 dereferenceable(32) %5) #11
  %15 = extractvalue { i64, ptr } %14, 0
  %16 = extractvalue { i64, ptr } %14, 1
  invoke void @_ZN17cmOutputConverter14EscapeForCMakeB5cxx11ESt17basic_string_viewIcSt11char_traitsIcEENS_10WrapQuotesE(ptr dead_on_unwind nonnull writable sret(%"class.std::__cxx11::basic_string") align 8 %6, i64 %15, ptr %16, i32 noundef 1)
          to label %17 unwind label %.loopexit.split-lp

17:                                               ; preds = %13
  %18 = invoke noundef nonnull align 8 dereferenceable(8) ptr @_ZStlsIcSt11char_traitsIcESaIcEERSt13basic_ostreamIT_T0_ES7_RKNSt7__cxx1112basic_stringIS4_S5_T1_EE(ptr noundef nonnull align 8 dereferenceable(8) %12, ptr noundef nonnull align 8 dereferenceable(32) %6)
          to label %19 unwind label %23

19:                                               ; preds = %17
  %20 = invoke noundef nonnull align 8 dereferenceable(8) ptr @_ZStlsISt11char_traitsIcEERSt13basic_ostreamIcT_ES5_PKc(ptr noundef nonnull align 8 dereferenceable(8) %18, ptr noundef nonnull @.str.4)
          to label %21 unwind label %23

21:                                               ; preds = %19
  call void @_ZNSt7__cxx1112basic_stringIcSt11char_traitsIcESaIcEED1Ev(ptr noundef nonnull align 8 dereferenceable(32) %6) #11
  br label %22

22:                                               ; preds = %4, %21
  call void @_ZNSt7__cxx1112basic_stringIcSt11char_traitsIcESaIcEED1Ev(ptr noundef nonnull align 8 dereferenceable(32) %5) #11
  ret void

.loopexit:                                        ; preds = %.lr.ph.i.i
  %lpad.loopexit = landingpad { ptr, i32 }
          cleanup
  br label %25

.loopexit.split-lp:                               ; preds = %_ZlsRSo23cmScriptGeneratorIndent.exit, %13
  %lpad.loopexit.split-lp = landingpad { ptr, i32 }
          cleanup
  br label %25

23:                                               ; preds = %19, %17
  %24 = landingpad { ptr, i32 }
          cleanup
  call void @_ZNSt7__cxx1112basic_stringIcSt11char_traitsIcESaIcEED1Ev(ptr noundef nonnull align 8 dereferenceable(32) %6) #11
  br label %25

25:                                               ; preds = %.loopexit, %.loopexit.split-lp, %23
  %.pn = phi { ptr, i32 } [ %24, %23 ], [ %lpad.loopexit, %.loopexit ], [ %lpad.loopexit.split-lp, %.loopexit.split-lp ]
  call void @_ZNSt7__cxx1112basic_stringIcSt11char_traitsIcESaIcEED1Ev(ptr noundef nonnull align 8 dereferenceable(32) %5) #11
  resume { ptr, i32 } %.pn
}